target datalayout = "e-m:e-p270:32:32-p271:32:32-p272:64:64-i64:64-i128:128-f80:128-n8:16:32:64-S128"
target triple = "x86_64-pc-linux-gnu"

@.str.6 = private unnamed_addr constant [4 x i8] c"%s\0A\00", align 1
@stdout = external global ptr, align 8

; Function Attrs: inlinehint nounwind uwtable
define internal void @Abc_TtCopy(ptr noundef %0, ptr noundef %1, i32 noundef %2, i32 noundef %3) #2 {
  %5 = alloca ptr, align 8
  %6 = alloca ptr, align 8
  %7 = alloca i32, align 4
  %8 = alloca i32, align 4
  %9 = alloca i32, align 4
  store ptr %0, ptr %5, align 8, !tbaa !35
  store ptr %1, ptr %6, align 8, !tbaa !35
  store i32 %2, ptr %7, align 4, !tbaa !8
  store i32 %3, ptr %8, align 4, !tbaa !8
  call void @llvm.lifetime.start.p0(i64 4, ptr %9) #9
  %10 = load i32, ptr %8, align 4, !tbaa !8
  %11 = icmp ne i32 %10, 0
  br i1 %11, label %12, label %32

12:                                               ; preds = %4
  store i32 0, ptr %9, align 4, !tbaa !8
  br label %13

13:                                               ; preds = %28, %12
  %14 = load i32, ptr %9, align 4, !tbaa !8
  %15 = load i32, ptr %7, align 4, !tbaa !8
  %16 = icmp slt i32 %14, %15
  br i1 %16, label %17, label %31

17:                                               ; preds = %13
  %18 = load ptr, ptr %6, align 8, !tbaa !35
  %19 = load i32, ptr %9, align 4, !tbaa !8
  %20 = sext i32 %19 to i64
  %21 = getelementptr inbounds i64, ptr %18, i64 %20
  %22 = load i64, ptr %21, align 8, !tbaa !33
  %23 = xor i64 %22, -1
  %24 = load ptr, ptr %5, align 8, !tbaa !35
  %25 = load i32, ptr %9, align 4, !tbaa !8
  %26 = sext i32 %25 to i64
  %27 = getelementptr inbounds i64, ptr %24, i64 %26
  store i64 %23, ptr %27, align 8, !tbaa !33
  br label %28

28:                                               ; preds = %17
  %29 = load i32, ptr %9, align 4, !tbaa !8
  %30 = add nsw i32 %29, 1
  store i32 %30, ptr %9, align 4, !tbaa !8
  br label %13, !llvm.loop !48

31:                                               ; preds = %13
  br label %51

32:                                               ; preds = %4
  store i32 0, ptr %9, align 4, !tbaa !8
  br label %33

33:                                               ; preds = %47, %32
  %34 = load i32, ptr %9, align 4, !tbaa !8
  %35 = load i32, ptr %7, align 4, !tbaa !8
  %36 = icmp slt i32 %34, %35
  br i1 %36, label %37, label %50

37:                                               ; preds = %33
  %38 = load ptr, ptr %6, align 8, !tbaa !35
  %39 = load i32, ptr %9, align 4, !tbaa !8
  %40 = sext i32 %39 to i64
  %41 = getelementptr inbounds i64, ptr %38, i64 %40
  %42 = load i64, ptr %41, align 8, !tbaa !33
  %43 = load ptr, ptr %5, align 8, !tbaa !35
  %44 = load i32, ptr %9, align 4, !tbaa !8
  %45 = sext i32 %44 to i64
  %46 = getelementptr inbounds i64, ptr %43, i64 %45
  store i64 %42, ptr %46, align 8, !tbaa !33
  br label %47

47:                                               ; preds = %37
  %48 = load i32, ptr %9, align 4, !tbaa !8
  %49 = add nsw i32 %48, 1
  store i32 %49, ptr %9, align 4, !tbaa !8
  br label %33, !llvm.loop !49

50:                                               ; preds = %33
  br label %51

51:                                               ; preds = %50, %31
  call void @llvm.lifetime.end.p0(i64 4, ptr %9) #9
  ret void
}

; Function Attrs: inlinehint nounwind uwtable
define internal i32 @Abc_TtWordNum(i32 noundef %0) #2 {
  %2 = alloca i32, align 4
  store i32 %0, ptr %2, align 4, !tbaa !8
  %3 = load i32, ptr %2, align 4, !tbaa !8
  %4 = icmp sle i32 %3, 6
  br i1 %4, label %5, label %6

5:                                                ; preds = %1
  br label %10

6:                                                ; preds = %1
  %7 = load i32, ptr %2, align 4, !tbaa !8
  %8 = sub nsw i32 %7, 6
  %9 = shl i32 1, %8
  br label %10

10:                                               ; preds = %6, %5
  %11 = phi i32 [ 1, %5 ], [ %9, %6 ]
  ret i32 %11
}

; Function Attrs: nounwind uwtable
define void @Dau_DsdPrintFromTruth(ptr noundef %0, i32 noundef %1) #0 {
  %3 = alloca ptr, align 8
  %4 = alloca i32, align 4
  %5 = alloca [2000 x i8], align 16
  %6 = alloca [64 x i64], align 16
  store ptr %0, ptr %3, align 8, !tbaa !35
  store i32 %1, ptr %4, align 4, !tbaa !8
  call void @llvm.lifetime.start.p0(i64 2000, ptr %5) #9
  call void @llvm.lifetime.start.p0(i64 512, ptr %6) #9
  %7 = getelementptr inbounds [64 x i64], ptr %6, i64 0, i64 0
  %8 = load ptr, ptr %3, align 8, !tbaa !35
  %9 = load i32, ptr %4, align 4, !tbaa !8
  %10 = call i32 @Abc_TtWordNum(i32 noundef %9)
  call void @Abc_TtCopy(ptr noundef %7, ptr noundef %8, i32 noundef %10, i32 noundef 0)
  %11 = getelementptr inbounds [64 x i64], ptr %6, i64 0, i64 0
  %12 = load i32, ptr %4, align 4, !tbaa !8
  %13 = getelementptr inbounds [2000 x i8], ptr %5, i64 0, i64 0
  %14 = call i32 @Dau_DsdDecompose(ptr noundef %11, i32 noundef %12, i32 noundef 0, i32 noundef 1, ptr noundef %13)
  %15 = load ptr, ptr @stdout, align 8, !tbaa !126
  %16 = getelementptr inbounds [2000 x i8], ptr %5, i64 0, i64 0
  %17 = call i32 (ptr, ptr, ...) @fprintf(ptr noundef %15, ptr noundef @.str.6, ptr noundef %16) #9
  call void @llvm.lifetime.end.p0(i64 512, ptr %6) #9
  call void @llvm.lifetime.end.p0(i64 2000, ptr %5) #9
  ret void
}